; Function Attrs: nounwind uwtable
define internal ptr @proxy_getattr(ptr noundef %0, ptr noundef %1) #0 {
  %3 = getelementptr i8, ptr %0, i64 8
  %.val = load ptr, ptr %3, align 8, !tbaa !4
  %.not = icmp eq ptr %.val, @_PyWeakref_ProxyType
  %.not43 = icmp eq ptr %.val, @_PyWeakref_CallableProxyType
  %or.cond = or i1 %.not, %.not43
  br i1 %or.cond, label %4, label %11

4:                                                ; preds = %2
  %5 = getelementptr i8, ptr %0, i64 16
  %.val28 = load ptr, ptr %5, align 8, !tbaa !37
  %6 = icmp eq ptr %.val28, @_Py_NoneStruct
  br i1 %6, label %proxy_check_ref.exit, label %7

7:                                                ; preds = %4
  %.val.i.i = load i32, ptr %.val28, align 8, !tbaa !42
  %.not.i.i = icmp eq i32 %.val.i.i, 0
  br i1 %.not.i.i, label %proxy_check_ref.exit, label %8

8:                                                ; preds = %7
  %9 = icmp slt i32 %.val.i.i, 0
  br i1 %9, label %Py_INCREF.exit, label %Py_INCREF.exit.sink.split

proxy_check_ref.exit:                             ; preds = %7, %4
  %10 = load ptr, ptr @PyExc_ReferenceError, align 8, !tbaa !45
  tail call void @PyErr_SetString(ptr noundef %10, ptr noundef nonnull @.str.21) #6
  br label %Py_DECREF.exit22

11:                                               ; preds = %2
  %12 = load i32, ptr %0, align 8, !tbaa !42
  %13 = icmp slt i32 %12, 0
  br i1 %13, label %Py_INCREF.exit, label %Py_INCREF.exit.sink.split

Py_INCREF.exit.sink.split:                        ; preds = %11, %8
  %.val.i.i.sink = phi i32 [ %.val.i.i, %8 ], [ %12, %11 ]
  %.val28.sink = phi ptr [ %.val28, %8 ], [ %0, %11 ]
  %14 = add nuw i32 %.val.i.i.sink, 1
  store i32 %14, ptr %.val28.sink, align 8, !tbaa !42
  br label %Py_INCREF.exit

Py_INCREF.exit:                                   ; preds = %Py_INCREF.exit.sink.split, %8, %11
  %.017 = phi ptr [ %0, %11 ], [ %.val28, %8 ], [ %.val28.sink, %Py_INCREF.exit.sink.split ]
  %15 = getelementptr i8, ptr %1, i64 8
  %.val26 = load ptr, ptr %15, align 8, !tbaa !4
  %.not44 = icmp eq ptr %.val26, @_PyWeakref_ProxyType
  %.not45 = icmp eq ptr %.val26, @_PyWeakref_CallableProxyType
  %or.cond46 = or i1 %.not44, %.not45
  br i1 %or.cond46, label %16, label %23

16:                                               ; preds = %Py_INCREF.exit
  %17 = getelementptr i8, ptr %1, i64 16
  %.val29 = load ptr, ptr %17, align 8, !tbaa !37
  %18 = icmp eq ptr %.val29, @_Py_NoneStruct
  br i1 %18, label %proxy_check_ref.exit34, label %19

19:                                               ; preds = %16
  %.val.i.i30 = load i32, ptr %.val29, align 8, !tbaa !42
  %.not.i.i31 = icmp eq i32 %.val.i.i30, 0
  br i1 %.not.i.i31, label %proxy_check_ref.exit34, label %20

20:                                               ; preds = %19
  %21 = icmp slt i32 %.val.i.i30, 0
  br i1 %21, label %Py_INCREF.exit23, label %Py_INCREF.exit23.sink.split

proxy_check_ref.exit34:                           ; preds = %19, %16
  %22 = load ptr, ptr @PyExc_ReferenceError, align 8, !tbaa !45
  tail call void @PyErr_SetString(ptr noundef %22, ptr noundef nonnull @.str.21) #6
  br label %Py_DECREF.exit22

23:                                               ; preds = %Py_INCREF.exit
  %24 = load i32, ptr %1, align 8, !tbaa !42
  %25 = icmp slt i32 %24, 0
  br i1 %25, label %Py_INCREF.exit23, label %Py_INCREF.exit23.sink.split

Py_INCREF.exit23.sink.split:                      ; preds = %23, %20
  %.val.i.i30.sink = phi i32 [ %.val.i.i30, %20 ], [ %24, %23 ]
  %.val29.sink = phi ptr [ %.val29, %20 ], [ %1, %23 ]
  %26 = add nuw i32 %.val.i.i30.sink, 1
  store i32 %26, ptr %.val29.sink, align 8, !tbaa !42
  br label %Py_INCREF.exit23

Py_INCREF.exit23:                                 ; preds = %Py_INCREF.exit23.sink.split, %20, %23
  %.016 = phi ptr [ %1, %23 ], [ %.val29, %20 ], [ %.val29.sink, %Py_INCREF.exit23.sink.split ]
  %27 = tail call ptr @PyObject_GetAttr(ptr noundef nonnull %.017, ptr noundef nonnull %.016) #6
  %28 = load i32, ptr %.017, align 8, !tbaa !42
  %.not.i = icmp sgt i32 %28, -1
  br i1 %.not.i, label %29, label %Py_DECREF.exit

29:                                               ; preds = %Py_INCREF.exit23
  %30 = add nsw i32 %28, -1
  store i32 %30, ptr %.017, align 8, !tbaa !42
  %31 = icmp eq i32 %30, 0
  br i1 %31, label %32, label %Py_DECREF.exit

32:                                               ; preds = %29
  tail call void @_Py_Dealloc(ptr noundef nonnull %.017) #6
  br label %Py_DECREF.exit

Py_DECREF.exit:                                   ; preds = %Py_INCREF.exit23, %29, %32
  %33 = load i32, ptr %.016, align 8, !tbaa !42
  %.not.i21 = icmp sgt i32 %33, -1
  br i1 %.not.i21, label %34, label %Py_DECREF.exit22

34:                                               ; preds = %Py_DECREF.exit
  %35 = add nsw i32 %33, -1
  store i32 %35, ptr %.016, align 8, !tbaa !42
  %36 = icmp eq i32 %35, 0
  br i1 %36, label %37, label %Py_DECREF.exit22

37:                                               ; preds = %34
  tail call void @_Py_Dealloc(ptr noundef nonnull %.016) #6
  br label %Py_DECREF.exit22

Py_DECREF.exit22:                                 ; preds = %37, %34, %Py_DECREF.exit, %proxy_check_ref.exit34, %proxy_check_ref.exit
  %.0 = phi ptr [ null, %proxy_check_ref.exit ], [ null, %proxy_check_ref.exit34 ], [ %27, %Py_DECREF.exit ], [ %27, %34 ], [ %27, %37 ]
  ret ptr %.0
}